target datalayout = "e-m:e-p270:32:32-p271:32:32-p272:64:64-i64:64-i128:128-f80:128-n8:16:32:64-S128"
target triple = "x86_64-pc-linux-gnu"

%struct.CVodeMemRec = type { double, ptr, ptr, i32, i32, i32, double, double, ptr, i32, ptr, ptr, i32, ptr, i32, i32, double, double, ptr, i32, i32, i32, ptr, ptr, ptr, i32, i32, ptr, ptr, ptr, i32, double, i32, i32, double, ptr, ptr, i32, ptr, ptr, i32, i32, i32, double, ptr, ptr, [13 x ptr], ptr, ptr, ptr, ptr, ptr, [13 x ptr], ptr, ptr, ptr, ptr, [13 x ptr], ptr, ptr, ptr, ptr, ptr, i32, [13 x ptr], ptr, ptr, ptr, ptr, ptr, i32, double, i32, i32, i32, i32, i32, double, double, double, double, double, double, double, double, [14 x double], [6 x double], [13 x double], double, double, double, double, double, double, double, double, double, double, double, i32, ptr, i32, i64, i32, i32, i32, i32, i32, double, double, double, i64, i64, i64, i64, i64, i64, i64, i64, i64, ptr, i64, i64, ptr, i64, i64, i64, i64, i64, i64, i32, i64, i64, i64, i64, i64, i64, double, double, double, ptr, ptr, ptr, ptr, ptr, i32, i32, i64, double, double, double, i32, double, i32, i32, i32, i32, i32, i32, i32, i32, i32, i32, i32, i32, i32, i32, i32, i32, ptr, ptr, ptr, i32, [6 x [4 x double]], i32, i64, ptr, i32, ptr, ptr, double, double, double, ptr, ptr, ptr, double, double, i32, i32, i64, ptr, i32, i32, ptr, i32 }
%struct.CVSpilsMemRec = type { i32, i32, i32, double, double, double, double, i32, i64, i64, i64, i64, i64, i64, i64, ptr, ptr, ptr, ptr, ptr, ptr, ptr, ptr, ptr, i32, ptr, ptr, i64 }
%struct.SpbcgMemRec = type { i32, ptr, ptr, ptr, ptr, ptr, ptr, ptr }

@.str = private unnamed_addr constant [8 x i8] c"CVSPBCG\00", align 1
@.str.9 = private unnamed_addr constant [12 x i8] c"CVSpbcgInit\00", align 1
@.str.10 = private unnamed_addr constant [52 x i8] c"pretype != PREC_NONE, but PSOLVE = NULL is illegal.\00", align 1

; Function Attrs: nounwind uwtable
define internal i32 @CVSpbcgInit(ptr noundef %0) #0 {
  %2 = alloca i32, align 4
  %3 = alloca ptr, align 8
  %4 = alloca ptr, align 8
  %5 = alloca ptr, align 8
  %6 = alloca i32, align 4
  store ptr %0, ptr %3, align 8, !tbaa !9
  call void @llvm.lifetime.start.p0(i64 8, ptr %4) #5
  call void @llvm.lifetime.start.p0(i64 8, ptr %5) #5
  %7 = load ptr, ptr %3, align 8, !tbaa !9
  %8 = getelementptr inbounds nuw %struct.CVodeMemRec, ptr %7, i32 0, i32 144
  %9 = load ptr, ptr %8, align 8, !tbaa !52
  store ptr %9, ptr %4, align 8, !tbaa !31
  %10 = load ptr, ptr %4, align 8, !tbaa !31
  %11 = getelementptr inbounds nuw %struct.CVSpilsMemRec, ptr %10, i32 0, i32 19
  %12 = load ptr, ptr %11, align 8, !tbaa !51
  store ptr %12, ptr %5, align 8, !tbaa !3
  %13 = load ptr, ptr %4, align 8, !tbaa !31
  %14 = getelementptr inbounds nuw %struct.CVSpilsMemRec, ptr %13, i32 0, i32 8
  store i64 0, ptr %14, align 8, !tbaa !53
  %15 = load ptr, ptr %4, align 8, !tbaa !31
  %16 = getelementptr inbounds nuw %struct.CVSpilsMemRec, ptr %15, i32 0, i32 12
  store i64 0, ptr %16, align 8, !tbaa !54
  %17 = load ptr, ptr %4, align 8, !tbaa !31
  %18 = getelementptr inbounds nuw %struct.CVSpilsMemRec, ptr %17, i32 0, i32 11
  store i64 0, ptr %18, align 8, !tbaa !55
  %19 = load ptr, ptr %4, align 8, !tbaa !31
  %20 = getelementptr inbounds nuw %struct.CVSpilsMemRec, ptr %19, i32 0, i32 10
  store i64 0, ptr %20, align 8, !tbaa !56
  %21 = load ptr, ptr %4, align 8, !tbaa !31
  %22 = getelementptr inbounds nuw %struct.CVSpilsMemRec, ptr %21, i32 0, i32 9
  store i64 0, ptr %22, align 8, !tbaa !57
  %23 = load ptr, ptr %4, align 8, !tbaa !31
  %24 = getelementptr inbounds nuw %struct.CVSpilsMemRec, ptr %23, i32 0, i32 14
  store i64 0, ptr %24, align 8, !tbaa !58
  %25 = load ptr, ptr %4, align 8, !tbaa !31
  %26 = getelementptr inbounds nuw %struct.CVSpilsMemRec, ptr %25, i32 0, i32 13
  store i64 0, ptr %26, align 8, !tbaa !59
  %27 = load ptr, ptr %4, align 8, !tbaa !31
  %28 = getelementptr inbounds nuw %struct.CVSpilsMemRec, ptr %27, i32 0, i32 1
  %29 = load i32, ptr %28, align 4, !tbaa !35
  %30 = icmp ne i32 %29, 0
  br i1 %30, label %31, label %40

31:                                               ; preds = %1
  %32 = load ptr, ptr %4, align 8, !tbaa !31
  %33 = getelementptr inbounds nuw %struct.CVSpilsMemRec, ptr %32, i32 0, i32 21
  %34 = load ptr, ptr %33, align 8, !tbaa !41
  %35 = icmp eq ptr %34, null
  br i1 %35, label %36, label %40

36:                                               ; preds = %31
  %37 = load ptr, ptr %3, align 8, !tbaa !9
  call void (ptr, i32, ptr, ptr, ptr, ...) @cvProcessError(ptr noundef %37, i32 noundef -1, ptr noundef @.str, ptr noundef @.str.9, ptr noundef @.str.10)
  %38 = load ptr, ptr %4, align 8, !tbaa !31
  %39 = getelementptr inbounds nuw %struct.CVSpilsMemRec, ptr %38, i32 0, i32 27
  store i64 -3, ptr %39, align 8, !tbaa !46
  store i32 -1, ptr %2, align 4
  store i32 1, ptr %6, align 4
  br label %79

40:                                               ; preds = %31, %1
  %41 = load ptr, ptr %4, align 8, !tbaa !31
  %42 = getelementptr inbounds nuw %struct.CVSpilsMemRec, ptr %41, i32 0, i32 1
  %43 = load i32, ptr %42, align 4, !tbaa !35
  %44 = icmp ne i32 %43, 0
  br i1 %44, label %45, label %50

45:                                               ; preds = %40
  %46 = load ptr, ptr %4, align 8, !tbaa !31
  %47 = getelementptr inbounds nuw %struct.CVSpilsMemRec, ptr %46, i32 0, i32 20
  %48 = load ptr, ptr %47, align 8, !tbaa !40
  %49 = icmp ne ptr %48, null
  br label %50

50:                                               ; preds = %45, %40
  %51 = phi i1 [ false, %40 ], [ %49, %45 ]
  %52 = zext i1 %51 to i32
  %53 = load ptr, ptr %3, align 8, !tbaa !9
  %54 = getelementptr inbounds nuw %struct.CVodeMemRec, ptr %53, i32 0, i32 158
  store i32 %52, ptr %54, align 4, !tbaa !47
  %55 = load ptr, ptr %4, align 8, !tbaa !31
  %56 = getelementptr inbounds nuw %struct.CVSpilsMemRec, ptr %55, i32 0, i32 24
  %57 = load i32, ptr %56, align 8, !tbaa !37
  %58 = icmp ne i32 %57, 0
  br i1 %58, label %59, label %65

59:                                               ; preds = %50
  %60 = load ptr, ptr %4, align 8, !tbaa !31
  %61 = getelementptr inbounds nuw %struct.CVSpilsMemRec, ptr %60, i32 0, i32 25
  store ptr @CVSpilsDQJtimes, ptr %61, align 8, !tbaa !38
  %62 = load ptr, ptr %3, align 8, !tbaa !9
  %63 = load ptr, ptr %4, align 8, !tbaa !31
  %64 = getelementptr inbounds nuw %struct.CVSpilsMemRec, ptr %63, i32 0, i32 26
  store ptr %62, ptr %64, align 8, !tbaa !39
  br label %71

65:                                               ; preds = %50
  %66 = load ptr, ptr %3, align 8, !tbaa !9
  %67 = getelementptr inbounds nuw %struct.CVodeMemRec, ptr %66, i32 0, i32 2
  %68 = load ptr, ptr %67, align 8, !tbaa !43
  %69 = load ptr, ptr %4, align 8, !tbaa !31
  %70 = getelementptr inbounds nuw %struct.CVSpilsMemRec, ptr %69, i32 0, i32 26
  store ptr %68, ptr %70, align 8, !tbaa !39
  br label %71

71:                                               ; preds = %65, %59
  %72 = load ptr, ptr %4, align 8, !tbaa !31
  %73 = getelementptr inbounds nuw %struct.CVSpilsMemRec, ptr %72, i32 0, i32 7
  %74 = load i32, ptr %73, align 8, !tbaa !36
  %75 = load ptr, ptr %5, align 8, !tbaa !3
  %76 = getelementptr inbounds nuw %struct.SpbcgMemRec, ptr %75, i32 0, i32 0
  store i32 %74, ptr %76, align 8, !tbaa !60
  %77 = load ptr, ptr %4, align 8, !tbaa !31
  %78 = getelementptr inbounds nuw %struct.CVSpilsMemRec, ptr %77, i32 0, i32 27
  store i64 0, ptr %78, align 8, !tbaa !46
  store i32 0, ptr %2, align 4
  store i32 1, ptr %6, align 4
  br label %79

79:                                               ; preds = %71, %36
  call void @llvm.lifetime.end.p0(i64 8, ptr %5) #5
  call void @llvm.lifetime.end.p0(i64 8, ptr %4) #5
  %80 = load i32, ptr %2, align 4
  ret i32 %80
}