; Function Attrs: nounwind uwtable
define internal range(i32 -1, 1) i32 @CVSpbcgInit(ptr noundef %0) #0 {
  %2 = getelementptr inbounds nuw i8, ptr %0, i64 1696
  %3 = load ptr, ptr %2, align 8, !tbaa !41
  %4 = getelementptr inbounds nuw i8, ptr %3, i64 144
  %5 = load ptr, ptr %4, align 8, !tbaa !40
  %6 = getelementptr inbounds nuw i8, ptr %3, i64 56
  %7 = getelementptr inbounds nuw i8, ptr %3, i64 4
  tail call void @llvm.memset.p0.i64(ptr noundef nonnull align 8 dereferenceable(56) %6, i8 0, i64 56, i1 false)
  %8 = load i32, ptr %7, align 4, !tbaa !29
  %.not = icmp eq i32 %8, 0
  br i1 %.not, label %.thread, label %9

9:                                                ; preds = %1
  %10 = getelementptr inbounds nuw i8, ptr %3, i64 160
  %11 = load ptr, ptr %10, align 8, !tbaa !42
  %12 = icmp eq ptr %11, null
  br i1 %12, label %13, label %14

13:                                               ; preds = %9
  tail call void (ptr, i32, ptr, ptr, ptr, ...) @cvProcessError(ptr noundef nonnull %0, i32 noundef -1, ptr noundef nonnull @.str, ptr noundef nonnull @.str.9, ptr noundef nonnull @.str.10) #7
  br label %32

14:                                               ; preds = %9
  %15 = getelementptr inbounds nuw i8, ptr %3, i64 152
  %16 = load ptr, ptr %15, align 8, !tbaa !43
  %17 = icmp ne ptr %16, null
  %18 = zext i1 %17 to i32
  br label %.thread

.thread:                                          ; preds = %1, %14
  %19 = phi i32 [ %18, %14 ], [ 0, %1 ]
  %20 = getelementptr inbounds nuw i8, ptr %0, i64 1780
  store i32 %19, ptr %20, align 4, !tbaa !36
  %21 = getelementptr inbounds nuw i8, ptr %3, i64 184
  %22 = load i32, ptr %21, align 8, !tbaa !31
  %.not26 = icmp eq i32 %22, 0
  br i1 %.not26, label %25, label %23

23:                                               ; preds = %.thread
  %24 = getelementptr inbounds nuw i8, ptr %3, i64 192
  store ptr @CVSpilsDQJtimes, ptr %24, align 8, !tbaa !44
  br label %28

25:                                               ; preds = %.thread
  %26 = getelementptr inbounds nuw i8, ptr %0, i64 16
  %27 = load ptr, ptr %26, align 8, !tbaa !32
  br label %28

28:                                               ; preds = %25, %23
  %.sink = phi ptr [ %27, %25 ], [ %0, %23 ]
  %29 = getelementptr inbounds nuw i8, ptr %3, i64 200
  store ptr %.sink, ptr %29, align 8, !tbaa !45
  %30 = getelementptr inbounds nuw i8, ptr %3, i64 48
  %31 = load i32, ptr %30, align 8, !tbaa !30
  store i32 %31, ptr %5, align 8, !tbaa !46
  br label %32

32:                                               ; preds = %28, %13
  %.sink27 = phi i64 [ 0, %28 ], [ -3, %13 ]
  %.0 = phi i32 [ 0, %28 ], [ -1, %13 ]
  %33 = getelementptr inbounds nuw i8, ptr %3, i64 208
  store i64 %.sink27, ptr %33, align 8, !tbaa !35
  ret i32 %.0
}